###############################################################################
#                                                                             #
# IAR C/C++ Compiler V8.20.2.41139 for 8051             13/Jun/2013  14:25:31 #
# Copyright 2004-2013 IAR Systems AB.                                         #
#                                                                             #
#    Core               =  plain                                              #
#    Code model         =  banked                                             #
#    Data model         =  large                                              #
#    Calling convention =  xdata reentrant                                    #
#    Constant location  =  data_rom                                           #
#    Dptr setup         =  1,16                                               #
#                                                                             #
#    Source file        =  C:\Users\PedroZ\Documents\GitHub\TG\Components\zma #
#                          c\f8w\zmac_cb.c                                    #
#    Command line       =  -f C:\Users\PedroZ\Documents\GitHub\TG\Projects\St #
#                          ack\SE\SampleApp\CC2530DB\..\..\..\Tools\CC2530DB\ #
#                          f8wEndev.cfg (-DCPU32MHZ -DROOT=__near_func        #
#                          -DMAC_CFG_TX_DATA_MAX=3 -DMAC_CFG_TX_MAX=6         #
#                          -DMAC_CFG_RX_MAX=3) -f C:\Users\PedroZ\Documents\G #
#                          itHub\TG\Projects\Stack\SE\SampleApp\CC2530DB\..\. #
#                          .\..\Tools\CC2530DB\f8wConfig.cfg (-DZIGBEEPRO     #
#                          -DSECURE=0 -DZG_SECURE_DYNAMIC=0 -DREFLECTOR       #
#                          -DDEFAULT_CHANLIST=0x00000800                      #
#                          -DZDAPP_CONFIG_PAN_ID=0xFFFF                       #
#                          -DNWK_START_DELAY=100 -DEXTENDED_JOINING_RANDOM_MA #
#                          SK=0x007F -DBEACON_REQUEST_DELAY=100               #
#                          -DBEACON_REQ_DELAY_MASK=0x00FF                     #
#                          -DLINK_STATUS_JITTER_MASK=0x007F                   #
#                          -DROUTE_EXPIRY_TIME=30 -DAPSC_ACK_WAIT_DURATION_PO #
#                          LLED=3000 -DNWK_INDIRECT_MSG_TIMEOUT=7             #
#                          -DMAX_RREQ_ENTRIES=8 -DAPSC_MAX_FRAME_RETRIES=3    #
#                          -DNWK_MAX_DATA_RETRIES=2                           #
#                          -DMAX_POLL_FAILURE_RETRIES=2 -DMAX_BCAST=9         #
#                          -DAPS_MAX_GROUPS=16 -DMAX_RTG_ENTRIES=40           #
#                          -DNWK_MAX_BINDING_ENTRIES=4                        #
#                          -DMAX_BINDING_CLUSTER_IDS=4 "-DDEFAULT_KEY={0x01,  #
#                          0x03, 0x05, 0x07, 0x09, 0x0B, 0x0D, 0x0F, 0x00,    #
#                          0x02, 0x04, 0x06, 0x08, 0x0A, 0x0C, 0x0D}"         #
#                          -DMAC_MAX_FRAME_SIZE=116                           #
#                          -DZDNWKMGR_MIN_TRANSMISSIONS=20 "-DCONST=const     #
#                          __code" -DGENERIC=__generic                        #
#                          -DRFD_RCVC_ALWAYS_ON=FALSE -DPOLL_RATE=1000        #
#                          -DQUEUED_POLL_RATE=100 -DRESPONSE_POLL_RATE=100    #
#                          -DREJOIN_POLL_RATE=440) -f                         #
#                          C:\Users\PedroZ\Documents\GitHub\TG\Projects\Stack #
#                          \SE\SampleApp\CC2530DB\..\..\..\Tools\CC2530DB\f8w #
#                          ZCL.cfg (-DZCL_READ -DZCL_WRITE -DZCL_BASIC        #
#                          -DZCL_IDENTIFY -DZCL_ON_OFF -DZCL_KEY_ESTABLISH    #
#                          -DZCL_KEY_ESTABLISHMENT_KEY_GENERATE_TIMEOUT=4     #
#                          -DZCL_KEY_ESTABLISHMENT_MAC_GENERATE_TIMEOUT=10    #
#                          -DZCL_KEY_ESTABLISHMENT_EKEY_GENERATE_TIMEOUT=10   #
#                          -DZCL_LOAD_CONTROL -DZCL_SIMPLE_METERING           #
#                          -DZCL_PRICING -DZCL_MESSAGE -DZCL_TUNNELING        #
#                          -DZCL_TOU) -DZCL_DEVICE_MGMT                       #
#                          C:\Users\PedroZ\Documents\GitHub\TG\Components\zma #
#                          c\f8w\zmac_cb.c -D TC_LINKKEY_JOIN -D ZTOOL_P1 -D  #
#                          MT_TASK -D MT_APP_FUNC -D MT_SYS_FUNC -D           #
#                          LCD_SUPPORTED -D NV_INIT -D xNV_RESTORE -D         #
#                          HOLD_AUTO_START -D NWK_AUTO_POLL -D ZCL_REPORT -D  #
#                          POWER_SAVING -D MAX_POLL_FAILURE_RETRIES=20 -D     #
#                          TEST_CERT_DATA -lC "C:\Users\PedroZ\Documents\GitH #
#                          ub\TG\Projects\Stack\SE\SampleApp\CC2530DB\Simple  #
#                          Metering - EndDevice\List\" -lA                    #
#                          "C:\Users\PedroZ\Documents\GitHub\TG\Projects\Stac #
#                          k\SE\SampleApp\CC2530DB\Simple Metering -          #
#                          EndDevice\List\" --diag_suppress Pe001,Pa010 -o    #
#                          "C:\Users\PedroZ\Documents\GitHub\TG\Projects\Stac #
#                          k\SE\SampleApp\CC2530DB\Simple Metering -          #
#                          EndDevice\Obj\" -e --no_cse --no_unroll            #
#                          --no_inline --no_code_motion --no_tbaa --debug     #
#                          --core=plain --dptr=16,1 --data_model=large        #
#                          --code_model=banked --calling_convention=xdata_ree #
#                          ntrant --place_constants=data_rom                  #
#                          --nr_virtual_regs 16 -I C:\Users\PedroZ\Documents\ #
#                          GitHub\TG\Projects\Stack\SE\SampleApp\CC2530DB\    #
#                          -I C:\Users\PedroZ\Documents\GitHub\TG\Projects\St #
#                          ack\SE\SampleApp\CC2530DB\..\Source\ -I            #
#                          C:\Users\PedroZ\Documents\GitHub\TG\Projects\Stack #
#                          \SE\SampleApp\CC2530DB\..\..\Source\ -I            #
#                          C:\Users\PedroZ\Documents\GitHub\TG\Projects\Stack #
#                          \SE\SampleApp\CC2530DB\..\..\..\ZMain\TI2530DB\    #
#                          -I C:\Users\PedroZ\Documents\GitHub\TG\Projects\St #
#                          ack\SE\SampleApp\CC2530DB\..\..\..\..\..\Component #
#                          s\hal\include\ -I C:\Users\PedroZ\Documents\GitHub #
#                          \TG\Projects\Stack\SE\SampleApp\CC2530DB\..\..\..\ #
#                          ..\..\Components\hal\target\CC2530EB\ -I           #
#                          C:\Users\PedroZ\Documents\GitHub\TG\Projects\Stack #
#                          \SE\SampleApp\CC2530DB\..\..\..\..\..\Components\m #
#                          ac\include\ -I C:\Users\PedroZ\Documents\GitHub\TG #
#                          \Projects\Stack\SE\SampleApp\CC2530DB\..\..\..\..\ #
#                          ..\Components\mac\high_level\ -I                   #
#                          C:\Users\PedroZ\Documents\GitHub\TG\Projects\Stack #
#                          \SE\SampleApp\CC2530DB\..\..\..\..\..\Components\m #
#                          ac\low_level\srf04\ -I C:\Users\PedroZ\Documents\G #
#                          itHub\TG\Projects\Stack\SE\SampleApp\CC2530DB\..\. #
#                          .\..\..\..\Components\mac\low_level\srf04\single_c #
#                          hip\ -I C:\Users\PedroZ\Documents\GitHub\TG\Projec #
#                          ts\Stack\SE\SampleApp\CC2530DB\..\..\..\..\..\Comp #
#                          onents\mt\ -I C:\Users\PedroZ\Documents\GitHub\TG\ #
#                          Projects\Stack\SE\SampleApp\CC2530DB\..\..\..\..\. #
#                          .\Components\osal\include\ -I                      #
#                          C:\Users\PedroZ\Documents\GitHub\TG\Projects\Stack #
#                          \SE\SampleApp\CC2530DB\..\..\..\..\..\Components\s #
#                          ervices\saddr\ -I C:\Users\PedroZ\Documents\GitHub #
#                          \TG\Projects\Stack\SE\SampleApp\CC2530DB\..\..\..\ #
#                          ..\..\Components\services\sdata\ -I                #
#                          C:\Users\PedroZ\Documents\GitHub\TG\Projects\Stack #
#                          \SE\SampleApp\CC2530DB\..\..\..\..\..\Components\s #
#                          tack\af\ -I C:\Users\PedroZ\Documents\GitHub\TG\Pr #
#                          ojects\Stack\SE\SampleApp\CC2530DB\..\..\..\..\..\ #
#                          Components\stack\nwk\ -I                           #
#                          C:\Users\PedroZ\Documents\GitHub\TG\Projects\Stack #
#                          \SE\SampleApp\CC2530DB\..\..\..\..\..\Components\s #
#                          tack\sapi\ -I C:\Users\PedroZ\Documents\GitHub\TG\ #
#                          Projects\Stack\SE\SampleApp\CC2530DB\..\..\..\..\. #
#                          .\Components\stack\sec\ -I                         #
#                          C:\Users\PedroZ\Documents\GitHub\TG\Projects\Stack #
#                          \SE\SampleApp\CC2530DB\..\..\..\..\..\Components\s #
#                          tack\sys\ -I C:\Users\PedroZ\Documents\GitHub\TG\P #
#                          rojects\Stack\SE\SampleApp\CC2530DB\..\..\..\..\.. #
#                          \Components\stack\zcl\ -I                          #
#                          C:\Users\PedroZ\Documents\GitHub\TG\Projects\Stack #
#                          \SE\SampleApp\CC2530DB\..\..\..\..\..\Components\s #
#                          tack\zdo\ -I C:\Users\PedroZ\Documents\GitHub\TG\P #
#                          rojects\Stack\SE\SampleApp\CC2530DB\..\..\..\..\.. #
#                          \Components\zmac\ -I C:\Users\PedroZ\Documents\Git #
#                          Hub\TG\Projects\Stack\SE\SampleApp\CC2530DB\..\..\ #
#                          ..\..\..\Components\zmac\f8w\ -On                  #
#                          --require_prototypes                               #
#    List file          =  C:\Users\PedroZ\Documents\GitHub\TG\Projects\Stack #
#                          \SE\SampleApp\CC2530DB\Simple Metering -           #
#                          EndDevice\List\zmac_cb.lst                         #
#    Object file        =  C:\Users\PedroZ\Documents\GitHub\TG\Projects\Stack #
#                          \SE\SampleApp\CC2530DB\Simple Metering -           #
#                          EndDevice\Obj\zmac_cb.r51                          #
#                                                                             #
#                                                                             #
###############################################################################

C:\Users\PedroZ\Documents\GitHub\TG\Components\zmac\f8w\zmac_cb.c
      1          /**************************************************************************************************
      2            Filename:       zmac_cb.c
      3            Revised:        $Date: 2012-03-08 17:10:16 -0800 (Thu, 08 Mar 2012) $
      4            Revision:       $Revision: 29685 $
      5          
      6            Description:    This file contains the NWK functions that the ZMAC calls
      7          
      8          
      9            Copyright 2005-2012 Texas Instruments Incorporated. All rights reserved.
     10          
     11            IMPORTANT: Your use of this Software is limited to those specific rights
     12            granted under the terms of a software license agreement between the user
     13            who downloaded the software, his/her employer (which must be your employer)
     14            and Texas Instruments Incorporated (the "License").  You may not use this
     15            Software unless you agree to abide by the terms of the License. The License
     16            limits your use, and you acknowledge, that the Software may not be modified,
     17            copied or distributed unless embedded on a Texas Instruments microcontroller
     18            or used solely and exclusively in conjunction with a Texas Instruments radio
     19            frequency transceiver, which is integrated into your product.  Other than for
     20            the foregoing purpose, you may not use, reproduce, copy, prepare derivative
     21            works of, modify, distribute, perform, display or sell this Software and/or
     22            its documentation for any purpose.
     23          
     24            YOU FURTHER ACKNOWLEDGE AND AGREE THAT THE SOFTWARE AND DOCUMENTATION ARE
     25            PROVIDED “AS IS” WITHOUT WARRANTY OF ANY KIND, EITHER EXPRESS OR IMPLIED,
     26            INCLUDING WITHOUT LIMITATION, ANY WARRANTY OF MERCHANTABILITY, TITLE,
     27            NON-INFRINGEMENT AND FITNESS FOR A PARTICULAR PURPOSE. IN NO EVENT SHALL
     28            TEXAS INSTRUMENTS OR ITS LICENSORS BE LIABLE OR OBLIGATED UNDER CONTRACT,
     29            NEGLIGENCE, STRICT LIABILITY, CONTRIBUTION, BREACH OF WARRANTY, OR OTHER
     30            LEGAL EQUITABLE THEORY ANY DIRECT OR INDIRECT DAMAGES OR EXPENSES
     31            INCLUDING BUT NOT LIMITED TO ANY INCIDENTAL, SPECIAL, INDIRECT, PUNITIVE
     32            OR CONSEQUENTIAL DAMAGES, LOST PROFITS OR LOST DATA, COST OF PROCUREMENT
     33            OF SUBSTITUTE GOODS, TECHNOLOGY, SERVICES, OR ANY CLAIMS BY THIRD PARTIES
     34            (INCLUDING BUT NOT LIMITED TO ANY DEFENSE THEREOF), OR OTHER SIMILAR COSTS.
     35          
     36            Should you have any questions regarding your right to use this Software,
     37            contact Texas Instruments Incorporated at www.TI.com.
     38          **************************************************************************************************/
     39          
     40          /********************************************************************************************************
     41           *                                               INCLUDES
     42           ********************************************************************************************************/
     43          
     44          #include "ZComDef.h"
     45          #include "OSAL.h"
     46          #include "ZMAC.h"
     47          #include "MT_MAC.h"
     48          #include "hal_mcu.h"

   \                                 In  segment SFR_AN, at 0xa8
   \   union <unnamed> volatile __sfr _A_IEN0
   \                     _A_IEN0:
   \   000000                DS 1
     49          
     50          #if !defined NONWK
     51          #include "nwk.h"
     52          #include "nwk_bufs.h"
     53          #include "ZGlobals.h"
     54          #endif
     55          
     56          #if defined( MACSIM )
     57            #include "mac_sim.h"
     58          #endif
     59          
     60          #include "mac_security.h"
     61          
     62          #include "mac_main.h"
     63          extern void *ZMac_ScanBuf;
     64          
     65          /********************************************************************************************************
     66           *                                               CONSTANTS
     67           ********************************************************************************************************/
     68          
     69          #if !defined NONWK
     70          /* Lookup table for size of structures. Must match with the order of MAC callback events */

   \                                 In  segment CODE_C, align 1
     71          const uint8 CODE zmacCBSizeTable [] = {
   \                     zmacCBSizeTable:
   \   000000   00           DB 0
   \   000001   16           DB 22
   \   000002   0F           DB 15
   \   000003   00           DB 0
   \   000004   00           DB 0
   \   000005   0B           DB 11
   \   000006   15           DB 21
   \   000007   0B           DB 11
   \   000008   02           DB 2
   \   000009   00           DB 0
   \   00000A   02           DB 2
   \   00000B   22           DB 34
   \   00000C   0F           DB 15
   \   00000D   32           DB 50
   \   00000E   00           DB 0
   \   00000F   00           DB 0
   \   000010   06           DB 6
     72            0,
     73            sizeof(ZMacAssociateInd_t),       // MAC_MLME_ASSOCIATE_IND      1   Associate indication
     74            sizeof(ZMacAssociateCnf_t),       // MAC_MLME_ASSOCIATE_CNF      2   Associate confirm
     75            0,                                // MAC_MLME_DISASSOCIATE_IND   3   Disassociate indication
     76            0,                                // MAC_MLME_DISASSOCIATE_CNF   4   Disassociate confirm
     77            sizeof(macMlmeBeaconNotifyInd_t), // MAC_MLME_BEACON_NOTIFY_IND  5   con notify indication
     78            sizeof(ZMacOrphanInd_t),          // MAC_MLME_ORPHAN_IND         6   Orphan indication
     79            sizeof(ZMacScanCnf_t),            // MAC_MLME_SCAN_CNF           7   Scan confirm
     80            sizeof(ZMacStartCnf_t),           // MAC_MLME_START_CNF          8   Start confirm
     81            0,                                // MAC_MLME_SYNC_LOSS_IND      9   Sync loss indication
     82            sizeof(ZMacPollCnf_t),            // MAC_MLME_POLL_CNF           10  Poll confirm
     83            sizeof(ZMacCommStatusInd_t),      // MAC_MLME_COMM_STATUS_IND    11  Comm status indication
     84            sizeof(ZMacDataCnf_t),            // MAC_MCPS_DATA_CNF           12  Data confirm
     85            sizeof(macMcpsDataInd_t),         // MAC_MCPS_DATA_IND           13  Data indication
     86            0,                                // MAC_MCPS_PURGE_CNF          14  Purge confirm
     87            0,                                // MAC_PWR_ON_CNF              15  Power on confirm
     88            sizeof(ZMacPollInd_t)             // MAC_MLME_POLL_IND           16  Poll indication
     89          };
     90          #endif /* !defined NONWK */
     91          
     92          /********************************************************************************************************
     93           *                                               LOCALS
     94           ********************************************************************************************************/
     95          
     96          /* LQI Adjustment Mode */

   \                                 In  segment XDATA_Z, align 1, keep-with-next
     97          static ZMacLqiAdjust_t lqiAdjMode = LQI_ADJ_OFF;
   \                     lqiAdjMode:
   \   000000                DS 1
   \   000001                REQUIRE __INIT_XDATA_Z
     98          
     99          #if !defined NONWK
    100          /* LQI Adjustment Function */
    101          static void ZMacLqiAdjust( uint8 corr, uint8* lqi );
    102          #endif
    103          
    104          /*********************************************************************
    105           * ZMAC Function Pointers
    106           */
    107          
    108          /*
    109           * ZMac Application callback function. This function will be called
    110           * for every MAC message that is received over-the-air or generated
    111           * locally by MAC for the application.
    112           *
    113           * The callback function should return TRUE if it has handled the
    114           * MAC message and no further action should be taken with it. It
    115           * should return FALSE if it has not handled the MAC message and
    116           * normal processing should take place.
    117           *
    118           * NOTE: The processing in this function should be kept to the
    119           *       minimum.
    120           */

   \                                 In  segment XDATA_Z, align 1, keep-with-next
    121          uint8 (*pZMac_AppCallback)( uint8 *msgPtr ) = (void*)NULL;
   \                     pZMac_AppCallback:
   \   000000                DS 2
   \   000002                REQUIRE __INIT_XDATA_Z
    122          
    123          
    124          /*********************************************************************
    125           * ZMAC Functions
    126           */
    127          
    128          /**************************************************************************************************
    129           * @fn       MAC_CbackEvent()
    130           *
    131           * @brief    convert MAC data confirm and indication to ZMac and send to NWK
    132           *
    133           * @param    pData - pointer to macCbackEvent_t
    134           *
    135           * @return   none
    136           *************************************************************************************************/

   \                                 In  segment BANKED_CODE, align 1, keep-with-next
    137          void MAC_CbackEvent(macCbackEvent_t *pData)
   \                     MAC_CbackEvent:
    138          #ifndef MT_MAC_CB_FUNC
    139          {
   \   000000   74EE         MOV     A,#-0x12
   \   000002   12....       LCALL   ?BANKED_ENTER_XDATA
   \   000005                ; Saved register size: 18
   \   000005                ; Auto size: 4
   \   000005   74FC         MOV     A,#-0x4
   \   000007   12....       LCALL   ?ALLOC_XSTACK8
   \   00000A   85..82       MOV     DPL,?XSP + 0
   \   00000D   85..83       MOV     DPH,?XSP + 1
   \   000010   EA           MOV     A,R2
   \   000011   F0           MOVX    @DPTR,A
   \   000012   A3           INC     DPTR
   \   000013   EB           MOV     A,R3
   \   000014   F0           MOVX    @DPTR,A
    140          #if !defined NONWK
    141            uint8 event = pData->hdr.event;
   \   000015   85..82       MOV     DPL,?XSP + 0
   \   000018   85..83       MOV     DPH,?XSP + 1
   \   00001B   E0           MOVX    A,@DPTR
   \   00001C   F8           MOV     R0,A
   \   00001D   A3           INC     DPTR
   \   00001E   E0           MOVX    A,@DPTR
   \   00001F   F583         MOV     DPH,A
   \   000021   8882         MOV     DPL,R0
   \   000023   E0           MOVX    A,@DPTR
   \   000024   F5..         MOV     ?V0 + 2,A
    142            uint16 tmp = zmacCBSizeTable[event];
   \   000026   85....       MOV     ?V0 + 0,?V0 + 2
   \   000029   75..00       MOV     ?V0 + 1,#0x0
   \   00002C   74..         MOV     A,#zmacCBSizeTable & 0xff
   \   00002E   25..         ADD     A,?V0 + 0
   \   000030   F582         MOV     DPL,A
   \   000032   74..         MOV     A,#(zmacCBSizeTable >> 8) & 0xff
   \   000034   35..         ADDC    A,?V0 + 1
   \   000036   F583         MOV     DPH,A
   \   000038   E4           CLR     A
   \   000039   93           MOVC    A,@A+DPTR
   \   00003A   F8           MOV     R0,A
   \   00003B   7900         MOV     R1,#0x0
   \   00003D   7402         MOV     A,#0x2
   \   00003F   12....       LCALL   ?XSTACK_DISP0_8
   \   000042   E8           MOV     A,R0
   \   000043   F0           MOVX    @DPTR,A
   \   000044   A3           INC     DPTR
   \   000045   E9           MOV     A,R1
   \   000046   F0           MOVX    @DPTR,A
    143            macCbackEvent_t *msgPtr;
    144          
    145            /* If the Network layer will handle a new MAC callback, a non-zero value must be entered in the
    146             * corresponding location in the zmacCBSizeTable[] - thus the table acts as "should handle"?
    147             */
    148            if (tmp == 0)
   \   000047   7402         MOV     A,#0x2
   \   000049   12....       LCALL   ?XSTACK_DISP0_8
   \   00004C   E0           MOVX    A,@DPTR
   \   00004D   F8           MOV     R0,A
   \   00004E   A3           INC     DPTR
   \   00004F   E0           MOVX    A,@DPTR
   \   000050   F9           MOV     R1,A
   \   000051   E8           MOV     A,R0
   \   000052   49           ORL     A,R1
   \   000053   7003         JNZ     $+5
   \   000055   02....       LJMP    ??MAC_CbackEvent_0 & 0xFFFF
    149            {
    150              return;
    151            }
    152          
    153            // MAC_MCPS_DATA_IND is very special - it is the only event where the MAC does not free *pData.
    154            if ( event == MAC_MCPS_DATA_IND )
   \   000058   740D         MOV     A,#0xd
   \   00005A   65..         XRL     A,?V0 + 2
   \   00005C   7066         JNZ     ??MAC_CbackEvent_1
    155            {
    156              MAC_MlmeGetReq( MAC_SHORT_ADDRESS, &tmp );
   \   00005E                ; Setup parameters for call to function MAC_MlmeGetReq
   \   00005E   7402         MOV     A,#0x2
   \   000060   12....       LCALL   ?XSTACK_DISP0_8
   \   000063   AA82         MOV     R2,DPL
   \   000065   AB83         MOV     R3,DPH
   \   000067   7953         MOV     R1,#0x53
   \   000069   12....       LCALL   ??MAC_MlmeGetReq?relay
   \   00006C   E9           MOV     A,R1
    157              if ((tmp == INVALID_NODE_ADDR) || (tmp == NWK_BROADCAST_SHORTADDR_DEVALL) ||
    158                  (pData->dataInd.msdu.len == 0))
   \   00006D   7402         MOV     A,#0x2
   \   00006F   12....       LCALL   ?XSTACK_DISP0_8
   \   000072   E0           MOVX    A,@DPTR
   \   000073   64FE         XRL     A,#0xfe
   \   000075   7004         JNZ     ??MAC_CbackEvent_2
   \   000077   A3           INC     DPTR
   \   000078   E0           MOVX    A,@DPTR
   \   000079   64FF         XRL     A,#0xff
   \                     ??MAC_CbackEvent_2:
   \   00007B   6025         JZ      ??MAC_CbackEvent_3
   \   00007D   7402         MOV     A,#0x2
   \   00007F   12....       LCALL   ?XSTACK_DISP0_8
   \   000082   E0           MOVX    A,@DPTR
   \   000083   64FF         XRL     A,#0xff
   \   000085   7004         JNZ     ??MAC_CbackEvent_4
   \   000087   A3           INC     DPTR
   \   000088   E0           MOVX    A,@DPTR
   \   000089   64FF         XRL     A,#0xff
   \                     ??MAC_CbackEvent_4:
   \   00008B   6015         JZ      ??MAC_CbackEvent_3
   \   00008D   85..82       MOV     DPL,?XSP + 0
   \   000090   85..83       MOV     DPH,?XSP + 1
   \   000093   E0           MOVX    A,@DPTR
   \   000094   F8           MOV     R0,A
   \   000095   A3           INC     DPTR
   \   000096   E0           MOVX    A,@DPTR
   \   000097   F583         MOV     DPH,A
   \   000099   8882         MOV     DPL,R0
   \   00009B   A3           INC     DPTR
   \   00009C   A3           INC     DPTR
   \   00009D   A3           INC     DPTR
   \   00009E   A3           INC     DPTR
   \   00009F   E0           MOVX    A,@DPTR
   \   0000A0   7010         JNZ     ??MAC_CbackEvent_5
    159              {
    160                mac_msg_deallocate( (uint8 **)&pData );
   \                     ??MAC_CbackEvent_3:
   \   0000A2                ; Setup parameters for call to function mac_msg_deallocate
   \   0000A2   85..82       MOV     DPL,?XSP + 0
   \   0000A5   85..83       MOV     DPH,?XSP + 1
   \   0000A8   AA82         MOV     R2,DPL
   \   0000AA   AB83         MOV     R3,DPH
   \   0000AC   12....       LCALL   ??mac_msg_deallocate?relay
    161                return;
   \   0000AF   02....       LJMP    ??MAC_CbackEvent_0 & 0xFFFF
    162              }
    163              msgPtr = pData;
   \                     ??MAC_CbackEvent_5:
   \   0000B2   85..82       MOV     DPL,?XSP + 0
   \   0000B5   85..83       MOV     DPH,?XSP + 1
   \   0000B8   E0           MOVX    A,@DPTR
   \   0000B9   F8           MOV     R0,A
   \   0000BA   A3           INC     DPTR
   \   0000BB   E0           MOVX    A,@DPTR
   \   0000BC   F9           MOV     R1,A
   \   0000BD   E8           MOV     A,R0
   \   0000BE   FE           MOV     R6,A
   \   0000BF   E9           MOV     A,R1
   \   0000C0   FF           MOV     R7,A
   \   0000C1   02....       LJMP    ??MAC_CbackEvent_6 & 0xFFFF
    164            }
    165            else
    166            {
    167              if (event == MAC_MLME_BEACON_NOTIFY_IND )
   \                     ??MAC_CbackEvent_1:
   \   0000C4   7405         MOV     A,#0x5
   \   0000C6   65..         XRL     A,?V0 + 2
   \   0000C8   702D         JNZ     ??MAC_CbackEvent_7
    168              {
    169                tmp += sizeof(macPanDesc_t) + pData->beaconNotifyInd.sduLength;
   \   0000CA   85..82       MOV     DPL,?XSP + 0
   \   0000CD   85..83       MOV     DPH,?XSP + 1
   \   0000D0   E0           MOVX    A,@DPTR
   \   0000D1   F8           MOV     R0,A
   \   0000D2   A3           INC     DPTR
   \   0000D3   E0           MOVX    A,@DPTR
   \   0000D4   C8           XCH     A,R0
   \   0000D5   2408         ADD     A,#0x8
   \   0000D7   F582         MOV     DPL,A
   \   0000D9   E8           MOV     A,R0
   \   0000DA   3400         ADDC    A,#0x0
   \   0000DC   F583         MOV     DPH,A
   \   0000DE   E0           MOVX    A,@DPTR
   \   0000DF   F8           MOV     R0,A
   \   0000E0   7900         MOV     R1,#0x0
   \   0000E2   2421         ADD     A,#0x21
   \   0000E4   F8           MOV     R0,A
   \   0000E5   E9           MOV     A,R1
   \   0000E6   3400         ADDC    A,#0x0
   \   0000E8   F9           MOV     R1,A
   \   0000E9   7402         MOV     A,#0x2
   \   0000EB   12....       LCALL   ?XSTACK_DISP0_8
   \   0000EE   E0           MOVX    A,@DPTR
   \   0000EF   28           ADD     A,R0
   \   0000F0   F0           MOVX    @DPTR,A
   \   0000F1   A3           INC     DPTR
   \   0000F2   E0           MOVX    A,@DPTR
   \   0000F3   39           ADDC    A,R1
   \   0000F4   F0           MOVX    @DPTR,A
   \   0000F5   8062         SJMP    ??MAC_CbackEvent_8
    170              }
    171              else if (event == MAC_MLME_SCAN_CNF)
   \                     ??MAC_CbackEvent_7:
   \   0000F7   7407         MOV     A,#0x7
   \   0000F9   65..         XRL     A,?V0 + 2
   \   0000FB   705C         JNZ     ??MAC_CbackEvent_8
    172              {
    173                if (pData->scanCnf.scanType == ZMAC_ED_SCAN)
   \   0000FD   85..82       MOV     DPL,?XSP + 0
   \   000100   85..83       MOV     DPH,?XSP + 1
   \   000103   E0           MOVX    A,@DPTR
   \   000104   F8           MOV     R0,A
   \   000105   A3           INC     DPTR
   \   000106   E0           MOVX    A,@DPTR
   \   000107   F583         MOV     DPH,A
   \   000109   8882         MOV     DPL,R0
   \   00010B   A3           INC     DPTR
   \   00010C   A3           INC     DPTR
   \   00010D   E0           MOVX    A,@DPTR
   \   00010E   7010         JNZ     ??MAC_CbackEvent_9
    174                {
    175                  tmp += ZMAC_ED_SCAN_MAXCHANNELS;
   \   000110   7402         MOV     A,#0x2
   \   000112   12....       LCALL   ?XSTACK_DISP0_8
   \   000115   E0           MOVX    A,@DPTR
   \   000116   241B         ADD     A,#0x1b
   \   000118   F0           MOVX    @DPTR,A
   \   000119   A3           INC     DPTR
   \   00011A   E0           MOVX    A,@DPTR
   \   00011B   3400         ADDC    A,#0x0
   \   00011D   F0           MOVX    @DPTR,A
   \   00011E   8039         SJMP    ??MAC_CbackEvent_8
    176                }
    177                else
    178                {
    179                  tmp += sizeof( ZMacPanDesc_t ) * pData->scanCnf.resultListSize;
   \                     ??MAC_CbackEvent_9:
   \   000120   85..82       MOV     DPL,?XSP + 0
   \   000123   85..83       MOV     DPH,?XSP + 1
   \   000126   E0           MOVX    A,@DPTR
   \   000127   F8           MOV     R0,A
   \   000128   A3           INC     DPTR
   \   000129   E0           MOVX    A,@DPTR
   \   00012A   C8           XCH     A,R0
   \   00012B   2408         ADD     A,#0x8
   \   00012D   F582         MOV     DPL,A
   \   00012F   E8           MOV     A,R0
   \   000130   3400         ADDC    A,#0x0
   \   000132   F583         MOV     DPH,A
   \   000134   E0           MOVX    A,@DPTR
   \   000135   F8           MOV     R0,A
   \   000136   7900         MOV     R1,#0x0
   \   000138   E8           MOV     A,R0
   \   000139   75F021       MOV     B,#0x21
   \   00013C   A4           MUL     AB
   \   00013D   C8           XCH     A,R0
   \   00013E   AAF0         MOV     R2,B
   \   000140   75F000       MOV     B,#0x0
   \   000143   A4           MUL     AB
   \   000144   2A           ADD     A,R2
   \   000145   FA           MOV     R2,A
   \   000146   75F021       MOV     B,#0x21
   \   000149   E9           MOV     A,R1
   \   00014A   A4           MUL     AB
   \   00014B   2A           ADD     A,R2
   \   00014C   F9           MOV     R1,A
   \   00014D   7402         MOV     A,#0x2
   \   00014F   12....       LCALL   ?XSTACK_DISP0_8
   \   000152   E0           MOVX    A,@DPTR
   \   000153   28           ADD     A,R0
   \   000154   F0           MOVX    @DPTR,A
   \   000155   A3           INC     DPTR
   \   000156   E0           MOVX    A,@DPTR
   \   000157   39           ADDC    A,R1
   \   000158   F0           MOVX    @DPTR,A
    180                }
    181              }
    182          
    183              if ( !(msgPtr = (macCbackEvent_t *)osal_msg_allocate(tmp)) )
   \                     ??MAC_CbackEvent_8:
   \   000159                ; Setup parameters for call to function osal_msg_allocate
   \   000159   7402         MOV     A,#0x2
   \   00015B   12....       LCALL   ?XSTACK_DISP0_8
   \   00015E   E0           MOVX    A,@DPTR
   \   00015F   FA           MOV     R2,A
   \   000160   A3           INC     DPTR
   \   000161   E0           MOVX    A,@DPTR
   \   000162   FB           MOV     R3,A
   \   000163   12....       LCALL   ??osal_msg_allocate?relay
   \   000166   8A..         MOV     ?V0 + 0,R2
   \   000168   8B..         MOV     ?V0 + 1,R3
   \   00016A   A8..         MOV     R0,?V0 + 0
   \   00016C   A9..         MOV     R1,?V0 + 1
   \   00016E   E8           MOV     A,R0
   \   00016F   FE           MOV     R6,A
   \   000170   E9           MOV     A,R1
   \   000171   FF           MOV     R7,A
   \   000172   E8           MOV     A,R0
   \   000173   49           ORL     A,R1
   \   000174   7071         JNZ     ??MAC_CbackEvent_10
    184              {
    185                // Not enough memory. If data confirm - try again
    186                if ((event == MAC_MCPS_DATA_CNF) && (pData->dataCnf.pDataReq != NULL))
   \   000176   740C         MOV     A,#0xc
   \   000178   65..         XRL     A,?V0 + 2
   \   00017A   7068         JNZ     ??MAC_CbackEvent_11
   \   00017C   85..82       MOV     DPL,?XSP + 0
   \   00017F   85..83       MOV     DPH,?XSP + 1
   \   000182   E0           MOVX    A,@DPTR
   \   000183   F8           MOV     R0,A
   \   000184   A3           INC     DPTR
   \   000185   E0           MOVX    A,@DPTR
   \   000186   F583         MOV     DPH,A
   \   000188   8882         MOV     DPL,R0
   \   00018A   A3           INC     DPTR
   \   00018B   A3           INC     DPTR
   \   00018C   A3           INC     DPTR
   \   00018D   E0           MOVX    A,@DPTR
   \   00018E   F8           MOV     R0,A
   \   00018F   A3           INC     DPTR
   \   000190   E0           MOVX    A,@DPTR
   \   000191   F9           MOV     R1,A
   \   000192   E8           MOV     A,R0
   \   000193   49           ORL     A,R1
   \   000194   604E         JZ      ??MAC_CbackEvent_11
    187                {
    188                  halIntState_t intState;
    189          
    190                  // This is not normally deallocated here because the pZMac_AppCallback()
    191                  // application may need it.
    192                  HAL_ENTER_CRITICAL_SECTION( intState );  // Hold off interrupts.
   \   000196   A2AF         MOV     C,0xa8.7
   \   000198   E4           CLR     A
   \   000199   33           RLC     A
   \   00019A   F5..         MOV     ?V0 + 0,A
   \   00019C   C2AF         CLR     0xa8.7
    193          
    194                  mac_msg_deallocate( (uint8**)&(pData->dataCnf.pDataReq) );
   \   00019E                ; Setup parameters for call to function mac_msg_deallocate
   \   00019E   85..82       MOV     DPL,?XSP + 0
   \   0001A1   85..83       MOV     DPH,?XSP + 1
   \   0001A4   E0           MOVX    A,@DPTR
   \   0001A5   2403         ADD     A,#0x3
   \   0001A7   FA           MOV     R2,A
   \   0001A8   A3           INC     DPTR
   \   0001A9   E0           MOVX    A,@DPTR
   \   0001AA   3400         ADDC    A,#0x0
   \   0001AC   FB           MOV     R3,A
   \   0001AD   12....       LCALL   ??mac_msg_deallocate?relay
    195                  if ( !(msgPtr = (macCbackEvent_t *)osal_msg_allocate(tmp)) )
   \   0001B0                ; Setup parameters for call to function osal_msg_allocate
   \   0001B0   7402         MOV     A,#0x2
   \   0001B2   12....       LCALL   ?XSTACK_DISP0_8
   \   0001B5   E0           MOVX    A,@DPTR
   \   0001B6   FA           MOV     R2,A
   \   0001B7   A3           INC     DPTR
   \   0001B8   E0           MOVX    A,@DPTR
   \   0001B9   FB           MOV     R3,A
   \   0001BA   12....       LCALL   ??osal_msg_allocate?relay
   \   0001BD   8A..         MOV     ?V0 + 4,R2
   \   0001BF   8B..         MOV     ?V0 + 5,R3
   \   0001C1   A8..         MOV     R0,?V0 + 4
   \   0001C3   A9..         MOV     R1,?V0 + 5
   \   0001C5   E8           MOV     A,R0
   \   0001C6   FE           MOV     R6,A
   \   0001C7   E9           MOV     A,R1
   \   0001C8   FF           MOV     R7,A
   \   0001C9   E8           MOV     A,R0
   \   0001CA   49           ORL     A,R1
   \   0001CB   700C         JNZ     ??MAC_CbackEvent_12
    196                  {
    197                    // Still no allocation, something is wrong
    198                    HAL_EXIT_CRITICAL_SECTION( intState );   // Re-enable interrupts.
   \   0001CD   85....       MOV     ?V0 + 7,?V0 + 0
   \   0001D0   E5..         MOV     A,?V0 + 0
   \   0001D2   A2E0         MOV     C,0xE0 /* A   */.0
   \   0001D4   92AF         MOV     0xa8.7,C
    199                    return;
   \   0001D6   02....       LJMP    ??MAC_CbackEvent_0 & 0xFFFF
    200                  }
    201                  HAL_EXIT_CRITICAL_SECTION( intState );   // Re-enable interrupts.
   \                     ??MAC_CbackEvent_12:
   \   0001D9   85....       MOV     ?V0 + 3,?V0 + 0
   \   0001DC   E5..         MOV     A,?V0 + 0
   \   0001DE   A2E0         MOV     C,0xE0 /* A   */.0
   \   0001E0   92AF         MOV     0xa8.7,C
   \   0001E2   8003         SJMP    ??MAC_CbackEvent_10
    202                }
    203                else
    204                {
    205                  // This message is dropped
    206                  return;
   \                     ??MAC_CbackEvent_11:
   \   0001E4   02....       LJMP    ??MAC_CbackEvent_0 & 0xFFFF
    207                }
    208              }
    209              osal_memcpy(msgPtr, pData, zmacCBSizeTable[event]);
   \                     ??MAC_CbackEvent_10:
   \   0001E7                ; Setup parameters for call to function osal_memcpy
   \   0001E7   85..82       MOV     DPL,?XSP + 0
   \   0001EA   85..83       MOV     DPH,?XSP + 1
   \   0001ED   E0           MOVX    A,@DPTR
   \   0001EE   F5..         MOV     ?V0 + 4,A
   \   0001F0   A3           INC     DPTR
   \   0001F1   E0           MOVX    A,@DPTR
   \   0001F2   F5..         MOV     ?V0 + 5,A
   \   0001F4   75..00       MOV     ?V0 + 6,#0x0
   \   0001F7   78..         MOV     R0,#?V0 + 4
   \   0001F9   12....       LCALL   ?PUSH_XSTACK_I_THREE
   \   0001FC   85....       MOV     ?V0 + 0,?V0 + 2
   \   0001FF   75..00       MOV     ?V0 + 1,#0x0
   \   000202   74..         MOV     A,#zmacCBSizeTable & 0xff
   \   000204   25..         ADD     A,?V0 + 0
   \   000206   F582         MOV     DPL,A
   \   000208   74..         MOV     A,#(zmacCBSizeTable >> 8) & 0xff
   \   00020A   35..         ADDC    A,?V0 + 1
   \   00020C   F583         MOV     DPH,A
   \   00020E   E4           CLR     A
   \   00020F   93           MOVC    A,@A+DPTR
   \   000210   FC           MOV     R4,A
   \   000211   7D00         MOV     R5,#0x0
   \   000213   EE           MOV     A,R6
   \   000214   FA           MOV     R2,A
   \   000215   EF           MOV     A,R7
   \   000216   FB           MOV     R3,A
   \   000217   12....       LCALL   ??osal_memcpy?relay
   \   00021A   7403         MOV     A,#0x3
   \   00021C   12....       LCALL   ?DEALLOC_XSTACK8
    210            }
    211          
    212            if ( event == MAC_MLME_BEACON_NOTIFY_IND )
   \                     ??MAC_CbackEvent_6:
   \   00021F   7405         MOV     A,#0x5
   \   000221   65..         XRL     A,?V0 + 2
   \   000223   6003         JZ      $+5
   \   000225   02....       LJMP    ??MAC_CbackEvent_13 & 0xFFFF
    213            {
    214              macMlmeBeaconNotifyInd_t *pBeacon = (macMlmeBeaconNotifyInd_t*)msgPtr;
   \   000228   8E..         MOV     ?V0 + 0,R6
   \   00022A   8F..         MOV     ?V0 + 1,R7
    215          
    216              osal_memcpy(pBeacon+1, pBeacon->pPanDesc, sizeof(macPanDesc_t));
   \   00022C                ; Setup parameters for call to function osal_memcpy
   \   00022C   85..82       MOV     DPL,?V0 + 0
   \   00022F   85..83       MOV     DPH,?V0 + 1
   \   000232   A3           INC     DPTR
   \   000233   A3           INC     DPTR
   \   000234   A3           INC     DPTR
   \   000235   E0           MOVX    A,@DPTR
   \   000236   F5..         MOV     ?V0 + 4,A
   \   000238   A3           INC     DPTR
   \   000239   E0           MOVX    A,@DPTR
   \   00023A   F5..         MOV     ?V0 + 5,A
   \   00023C   75..00       MOV     ?V0 + 6,#0x0
   \   00023F   78..         MOV     R0,#?V0 + 4
   \   000241   12....       LCALL   ?PUSH_XSTACK_I_THREE
   \   000244   7C21         MOV     R4,#0x21
   \   000246   7D00         MOV     R5,#0x0
   \   000248   E5..         MOV     A,?V0 + 0
   \   00024A   240B         ADD     A,#0xb
   \   00024C   FA           MOV     R2,A
   \   00024D   E5..         MOV     A,?V0 + 1
   \   00024F   3400         ADDC    A,#0x0
   \   000251   FB           MOV     R3,A
   \   000252   12....       LCALL   ??osal_memcpy?relay
   \   000255   7403         MOV     A,#0x3
   \   000257   12....       LCALL   ?DEALLOC_XSTACK8
    217              pBeacon->pPanDesc = (macPanDesc_t *)(pBeacon+1);
   \   00025A   E5..         MOV     A,?V0 + 0
   \   00025C   240B         ADD     A,#0xb
   \   00025E   F8           MOV     R0,A
   \   00025F   E5..         MOV     A,?V0 + 1
   \   000261   3400         ADDC    A,#0x0
   \   000263   F9           MOV     R1,A
   \   000264   85..82       MOV     DPL,?V0 + 0
   \   000267   85..83       MOV     DPH,?V0 + 1
   \   00026A   A3           INC     DPTR
   \   00026B   A3           INC     DPTR
   \   00026C   A3           INC     DPTR
   \   00026D   E8           MOV     A,R0
   \   00026E   F0           MOVX    @DPTR,A
   \   00026F   A3           INC     DPTR
   \   000270   E9           MOV     A,R1
   \   000271   F0           MOVX    @DPTR,A
    218              osal_memcpy(pBeacon->pPanDesc+1, pBeacon->pSdu, pBeacon->sduLength);
   \   000272                ; Setup parameters for call to function osal_memcpy
   \   000272   85..82       MOV     DPL,?V0 + 0
   \   000275   85..83       MOV     DPH,?V0 + 1
   \   000278   A3           INC     DPTR
   \   000279   A3           INC     DPTR
   \   00027A   A3           INC     DPTR
   \   00027B   A3           INC     DPTR
   \   00027C   A3           INC     DPTR
   \   00027D   A3           INC     DPTR
   \   00027E   A3           INC     DPTR
   \   00027F   A3           INC     DPTR
   \   000280   A3           INC     DPTR
   \   000281   E0           MOVX    A,@DPTR
   \   000282   F5..         MOV     ?V0 + 4,A
   \   000284   A3           INC     DPTR
   \   000285   E0           MOVX    A,@DPTR
   \   000286   F5..         MOV     ?V0 + 5,A
   \   000288   75..00       MOV     ?V0 + 6,#0x0
   \   00028B   78..         MOV     R0,#?V0 + 4
   \   00028D   12....       LCALL   ?PUSH_XSTACK_I_THREE
   \   000290   85..82       MOV     DPL,?V0 + 0
   \   000293   85..83       MOV     DPH,?V0 + 1
   \   000296   A3           INC     DPTR
   \   000297   A3           INC     DPTR
   \   000298   A3           INC     DPTR
   \   000299   A3           INC     DPTR
   \   00029A   A3           INC     DPTR
   \   00029B   A3           INC     DPTR
   \   00029C   A3           INC     DPTR
   \   00029D   A3           INC     DPTR
   \   00029E   E0           MOVX    A,@DPTR
   \   00029F   FC           MOV     R4,A
   \   0002A0   7D00         MOV     R5,#0x0
   \   0002A2   85..82       MOV     DPL,?V0 + 0
   \   0002A5   85..83       MOV     DPH,?V0 + 1
   \   0002A8   A3           INC     DPTR
   \   0002A9   A3           INC     DPTR
   \   0002AA   A3           INC     DPTR
   \   0002AB   E0           MOVX    A,@DPTR
   \   0002AC   2421         ADD     A,#0x21
   \   0002AE   FA           MOV     R2,A
   \   0002AF   A3           INC     DPTR
   \   0002B0   E0           MOVX    A,@DPTR
   \   0002B1   3400         ADDC    A,#0x0
   \   0002B3   FB           MOV     R3,A
   \   0002B4   12....       LCALL   ??osal_memcpy?relay
   \   0002B7   7403         MOV     A,#0x3
   \   0002B9   12....       LCALL   ?DEALLOC_XSTACK8
    219              pBeacon->pSdu = (uint8 *)(pBeacon->pPanDesc+1);
   \   0002BC   85..82       MOV     DPL,?V0 + 0
   \   0002BF   85..83       MOV     DPH,?V0 + 1
   \   0002C2   A3           INC     DPTR
   \   0002C3   A3           INC     DPTR
   \   0002C4   A3           INC     DPTR
   \   0002C5   E0           MOVX    A,@DPTR
   \   0002C6   2421         ADD     A,#0x21
   \   0002C8   F8           MOV     R0,A
   \   0002C9   A3           INC     DPTR
   \   0002CA   E0           MOVX    A,@DPTR
   \   0002CB   3400         ADDC    A,#0x0
   \   0002CD   F9           MOV     R1,A
   \   0002CE   85..82       MOV     DPL,?V0 + 0
   \   0002D1   85..83       MOV     DPH,?V0 + 1
   \   0002D4   A3           INC     DPTR
   \   0002D5   A3           INC     DPTR
   \   0002D6   A3           INC     DPTR
   \   0002D7   A3           INC     DPTR
   \   0002D8   A3           INC     DPTR
   \   0002D9   A3           INC     DPTR
   \   0002DA   A3           INC     DPTR
   \   0002DB   A3           INC     DPTR
   \   0002DC   A3           INC     DPTR
   \   0002DD   E8           MOV     A,R0
   \   0002DE   F0           MOVX    @DPTR,A
   \   0002DF   A3           INC     DPTR
   \   0002E0   E9           MOV     A,R1
   \   0002E1   F0           MOVX    @DPTR,A
   \   0002E2   02....       LJMP    ??MAC_CbackEvent_14 & 0xFFFF
    220            }
    221            else if (event == MAC_MLME_SCAN_CNF)
   \                     ??MAC_CbackEvent_13:
   \   0002E5   7407         MOV     A,#0x7
   \   0002E7   65..         XRL     A,?V0 + 2
   \   0002E9   6003         JZ      $+5
   \   0002EB   02....       LJMP    ??MAC_CbackEvent_14 & 0xFFFF
    222            {
    223              macMlmeScanCnf_t *pScan = (macMlmeScanCnf_t*)msgPtr;
   \   0002EE   8E..         MOV     ?V0 + 0,R6
   \   0002F0   8F..         MOV     ?V0 + 1,R7
    224          
    225              if (ZMac_ScanBuf != NULL)
   \   0002F2   90....       MOV     DPTR,#ZMac_ScanBuf
   \   0002F5   E0           MOVX    A,@DPTR
   \   0002F6   F8           MOV     R0,A
   \   0002F7   A3           INC     DPTR
   \   0002F8   E0           MOVX    A,@DPTR
   \   0002F9   F9           MOV     R1,A
   \   0002FA   E8           MOV     A,R0
   \   0002FB   49           ORL     A,R1
   \   0002FC   7003         JNZ     $+5
   \   0002FE   02....       LJMP    ??MAC_CbackEvent_14 & 0xFFFF
    226              {
    227                void *pTmp = ZMac_ScanBuf;
   \   000301   90....       MOV     DPTR,#ZMac_ScanBuf
   \   000304   E0           MOVX    A,@DPTR
   \   000305   F5..         MOV     ?V0 + 8,A
   \   000307   A3           INC     DPTR
   \   000308   E0           MOVX    A,@DPTR
   \   000309   F5..         MOV     ?V0 + 9,A
    228                ZMac_ScanBuf = NULL;
   \   00030B   90....       MOV     DPTR,#ZMac_ScanBuf
   \   00030E   7400         MOV     A,#0x0
   \   000310   F0           MOVX    @DPTR,A
   \   000311   A3           INC     DPTR
   \   000312   7400         MOV     A,#0x0
   \   000314   F0           MOVX    @DPTR,A
    229          
    230                if (pScan->scanType == ZMAC_ED_SCAN)
   \   000315   85..82       MOV     DPL,?V0 + 0
   \   000318   85..83       MOV     DPH,?V0 + 1
   \   00031B   A3           INC     DPTR
   \   00031C   A3           INC     DPTR
   \   00031D   E0           MOVX    A,@DPTR
   \   00031E   704E         JNZ     ??MAC_CbackEvent_15
    231                {
    232                  pScan->result.pEnergyDetect = (uint8*) (pScan + 1);
   \   000320   E5..         MOV     A,?V0 + 0
   \   000322   240B         ADD     A,#0xb
   \   000324   F8           MOV     R0,A
   \   000325   E5..         MOV     A,?V0 + 1
   \   000327   3400         ADDC    A,#0x0
   \   000329   F9           MOV     R1,A
   \   00032A   85..82       MOV     DPL,?V0 + 0
   \   00032D   85..83       MOV     DPH,?V0 + 1
   \   000330   A3           INC     DPTR
   \   000331   A3           INC     DPTR
   \   000332   A3           INC     DPTR
   \   000333   A3           INC     DPTR
   \   000334   A3           INC     DPTR
   \   000335   A3           INC     DPTR
   \   000336   A3           INC     DPTR
   \   000337   A3           INC     DPTR
   \   000338   A3           INC     DPTR
   \   000339   E8           MOV     A,R0
   \   00033A   F0           MOVX    @DPTR,A
   \   00033B   A3           INC     DPTR
   \   00033C   E9           MOV     A,R1
   \   00033D   F0           MOVX    @DPTR,A
    233                  osal_memcpy(pScan->result.pEnergyDetect, pTmp, ZMAC_ED_SCAN_MAXCHANNELS);
   \   00033E                ; Setup parameters for call to function osal_memcpy
   \   00033E   85....       MOV     ?V0 + 4,?V0 + 8
   \   000341   85....       MOV     ?V0 + 5,?V0 + 9
   \   000344   75..00       MOV     ?V0 + 6,#0x0
   \   000347   78..         MOV     R0,#?V0 + 4
   \   000349   12....       LCALL   ?PUSH_XSTACK_I_THREE
   \   00034C   7C1B         MOV     R4,#0x1b
   \   00034E   7D00         MOV     R5,#0x0
   \   000350   85..82       MOV     DPL,?V0 + 0
   \   000353   85..83       MOV     DPH,?V0 + 1
   \   000356   A3           INC     DPTR
   \   000357   A3           INC     DPTR
   \   000358   A3           INC     DPTR
   \   000359   A3           INC     DPTR
   \   00035A   A3           INC     DPTR
   \   00035B   A3           INC     DPTR
   \   00035C   A3           INC     DPTR
   \   00035D   A3           INC     DPTR
   \   00035E   A3           INC     DPTR
   \   00035F   E0           MOVX    A,@DPTR
   \   000360   FA           MOV     R2,A
   \   000361   A3           INC     DPTR
   \   000362   E0           MOVX    A,@DPTR
   \   000363   FB           MOV     R3,A
   \   000364   12....       LCALL   ??osal_memcpy?relay
   \   000367   7403         MOV     A,#0x3
   \   000369   12....       LCALL   ?DEALLOC_XSTACK8
   \   00036C   8065         SJMP    ??MAC_CbackEvent_16
    234                }
    235                else
    236                {
    237                  pScan->result.pPanDescriptor = (macPanDesc_t*) (pScan + 1);
   \                     ??MAC_CbackEvent_15:
   \   00036E   E5..         MOV     A,?V0 + 0
   \   000370   240B         ADD     A,#0xb
   \   000372   F8           MOV     R0,A
   \   000373   E5..         MOV     A,?V0 + 1
   \   000375   3400         ADDC    A,#0x0
   \   000377   F9           MOV     R1,A
   \   000378   85..82       MOV     DPL,?V0 + 0
   \   00037B   85..83       MOV     DPH,?V0 + 1
   \   00037E   A3           INC     DPTR
   \   00037F   A3           INC     DPTR
   \   000380   A3           INC     DPTR
   \   000381   A3           INC     DPTR
   \   000382   A3           INC     DPTR
   \   000383   A3           INC     DPTR
   \   000384   A3           INC     DPTR
   \   000385   A3           INC     DPTR
   \   000386   A3           INC     DPTR
   \   000387   E8           MOV     A,R0
   \   000388   F0           MOVX    @DPTR,A
   \   000389   A3           INC     DPTR
   \   00038A   E9           MOV     A,R1
   \   00038B   F0           MOVX    @DPTR,A
    238                  osal_memcpy(pScan + 1, pTmp, sizeof( ZMacPanDesc_t ) * pScan->resultListSize);
   \   00038C                ; Setup parameters for call to function osal_memcpy
   \   00038C   85....       MOV     ?V0 + 4,?V0 + 8
   \   00038F   85....       MOV     ?V0 + 5,?V0 + 9
   \   000392   75..00       MOV     ?V0 + 6,#0x0
   \   000395   78..         MOV     R0,#?V0 + 4
   \   000397   12....       LCALL   ?PUSH_XSTACK_I_THREE
   \   00039A   85..82       MOV     DPL,?V0 + 0
   \   00039D   85..83       MOV     DPH,?V0 + 1
   \   0003A0   A3           INC     DPTR
   \   0003A1   A3           INC     DPTR
   \   0003A2   A3           INC     DPTR
   \   0003A3   A3           INC     DPTR
   \   0003A4   A3           INC     DPTR
   \   0003A5   A3           INC     DPTR
   \   0003A6   A3           INC     DPTR
   \   0003A7   A3           INC     DPTR
   \   0003A8   E0           MOVX    A,@DPTR
   \   0003A9   FC           MOV     R4,A
   \   0003AA   7D00         MOV     R5,#0x0
   \   0003AC   EC           MOV     A,R4
   \   0003AD   75F021       MOV     B,#0x21
   \   0003B0   A4           MUL     AB
   \   0003B1   CC           XCH     A,R4
   \   0003B2   A8F0         MOV     R0,B
   \   0003B4   75F000       MOV     B,#0x0
   \   0003B7   A4           MUL     AB
   \   0003B8   28           ADD     A,R0
   \   0003B9   F8           MOV     R0,A
   \   0003BA   75F021       MOV     B,#0x21
   \   0003BD   ED           MOV     A,R5
   \   0003BE   A4           MUL     AB
   \   0003BF   28           ADD     A,R0
   \   0003C0   FD           MOV     R5,A
   \   0003C1   E5..         MOV     A,?V0 + 0
   \   0003C3   240B         ADD     A,#0xb
   \   0003C5   FA           MOV     R2,A
   \   0003C6   E5..         MOV     A,?V0 + 1
   \   0003C8   3400         ADDC    A,#0x0
   \   0003CA   FB           MOV     R3,A
   \   0003CB   12....       LCALL   ??osal_memcpy?relay
   \   0003CE   7403         MOV     A,#0x3
   \   0003D0   12....       LCALL   ?DEALLOC_XSTACK8
    239                }
    240          
    241                osal_mem_free(pTmp);
   \                     ??MAC_CbackEvent_16:
   \   0003D3                ; Setup parameters for call to function osal_mem_free
   \   0003D3   AA..         MOV     R2,?V0 + 8
   \   0003D5   AB..         MOV     R3,?V0 + 9
   \   0003D7   12....       LCALL   ??osal_mem_free?relay
    242              }
    243            }
    244          
    245            if ( ( pZMac_AppCallback == NULL ) || ( pZMac_AppCallback( (uint8 *)msgPtr ) == FALSE ) )
   \                     ??MAC_CbackEvent_14:
   \   0003DA   90....       MOV     DPTR,#pZMac_AppCallback
   \   0003DD   E0           MOVX    A,@DPTR
   \   0003DE   F8           MOV     R0,A
   \   0003DF   A3           INC     DPTR
   \   0003E0   E0           MOVX    A,@DPTR
   \   0003E1   F9           MOV     R1,A
   \   0003E2   E8           MOV     A,R0
   \   0003E3   49           ORL     A,R1
   \   0003E4   6018         JZ      ??MAC_CbackEvent_17
   \   0003E6                ; Setup parameters for indirect call
   \   0003E6   EE           MOV     A,R6
   \   0003E7   FA           MOV     R2,A
   \   0003E8   EF           MOV     A,R7
   \   0003E9   FB           MOV     R3,A
   \   0003EA   90....       MOV     DPTR,#pZMac_AppCallback
   \   0003ED   E0           MOVX    A,@DPTR
   \   0003EE   F8           MOV     R0,A
   \   0003EF   A3           INC     DPTR
   \   0003F0   E0           MOVX    A,@DPTR
   \   0003F1   F583         MOV     DPH,A
   \   0003F3   8882         MOV     DPL,R0
   \   0003F5   12....       LCALL   ?CALL_IND
   \   0003F8   E9           MOV     A,R1
   \   0003F9   6003         JZ      $+5
   \   0003FB   02....       LJMP    ??MAC_CbackEvent_18 & 0xFFFF
    246            {
    247              // Filter out non-zigbee packets
    248              if ( event == MAC_MCPS_DATA_IND )
   \                     ??MAC_CbackEvent_17:
   \   0003FE   740D         MOV     A,#0xd
   \   000400   65..         XRL     A,?V0 + 2
   \   000402   6003         JZ      $+5
   \   000404   02....       LJMP    ??MAC_CbackEvent_19 & 0xFFFF
    249              {
    250                uint8 fcFrameType = (pData->dataInd.msdu.p[0] & 0x03);
   \   000407   85..82       MOV     DPL,?XSP + 0
   \   00040A   85..83       MOV     DPH,?XSP + 1
   \   00040D   E0           MOVX    A,@DPTR
   \   00040E   F8           MOV     R0,A
   \   00040F   A3           INC     DPTR
   \   000410   E0           MOVX    A,@DPTR
   \   000411   F583         MOV     DPH,A
   \   000413   8882         MOV     DPL,R0
   \   000415   A3           INC     DPTR
   \   000416   A3           INC     DPTR
   \   000417   E0           MOVX    A,@DPTR
   \   000418   F8           MOV     R0,A
   \   000419   A3           INC     DPTR
   \   00041A   E0           MOVX    A,@DPTR
   \   00041B   F583         MOV     DPH,A
   \   00041D   8882         MOV     DPL,R0
   \   00041F   E0           MOVX    A,@DPTR
   \   000420   5403         ANL     A,#0x3
   \   000422   F5..         MOV     ?V0 + 4,A
    251                uint8 fcProtoVer = ((pData->dataInd.msdu.p[0] >> 2) & 0x0F);
   \   000424   85..82       MOV     DPL,?XSP + 0
   \   000427   85..83       MOV     DPH,?XSP + 1
   \   00042A   E0           MOVX    A,@DPTR
   \   00042B   F8           MOV     R0,A
   \   00042C   A3           INC     DPTR
   \   00042D   E0           MOVX    A,@DPTR
   \   00042E   F583         MOV     DPH,A
   \   000430   8882         MOV     DPL,R0
   \   000432   A3           INC     DPTR
   \   000433   A3           INC     DPTR
   \   000434   E0           MOVX    A,@DPTR
   \   000435   F8           MOV     R0,A
   \   000436   A3           INC     DPTR
   \   000437   E0           MOVX    A,@DPTR
   \   000438   F583         MOV     DPH,A
   \   00043A   8882         MOV     DPL,R0
   \   00043C   E0           MOVX    A,@DPTR
   \   00043D   13           RRC     A
   \   00043E   13           RRC     A
   \   00043F   543F         ANL     A,#0x3f
   \   000441   540F         ANL     A,#0xf
   \   000443   F5..         MOV     ?V0 + 5,A
    252                uint8 fcReserve = (pData->dataInd.msdu.p[1] & 0xE0);
   \   000445   85..82       MOV     DPL,?XSP + 0
   \   000448   85..83       MOV     DPH,?XSP + 1
   \   00044B   E0           MOVX    A,@DPTR
   \   00044C   F8           MOV     R0,A
   \   00044D   A3           INC     DPTR
   \   00044E   E0           MOVX    A,@DPTR
   \   00044F   F583         MOV     DPH,A
   \   000451   8882         MOV     DPL,R0
   \   000453   A3           INC     DPTR
   \   000454   A3           INC     DPTR
   \   000455   E0           MOVX    A,@DPTR
   \   000456   F8           MOV     R0,A
   \   000457   A3           INC     DPTR
   \   000458   E0           MOVX    A,@DPTR
   \   000459   F583         MOV     DPH,A
   \   00045B   8882         MOV     DPL,R0
   \   00045D   A3           INC     DPTR
   \   00045E   E0           MOVX    A,@DPTR
   \   00045F   54E0         ANL     A,#0xe0
   \   000461   F5..         MOV     ?V0 + 6,A
    253                if ( (fcFrameType > 0x01) || (fcProtoVer != _NIB.nwkProtocolVersion) || (fcReserve != 0)
    254                    || (pData->dataInd.mac.srcAddr.addrMode != SADDR_MODE_SHORT) )
   \   000463   E5..         MOV     A,?V0 + 4
   \   000465   C3           CLR     C
   \   000466   9402         SUBB    A,#0x2
   \   000468   5025         JNC     ??MAC_CbackEvent_20
   \   00046A   90....       MOV     DPTR,#_NIB + 17
   \   00046D   E0           MOVX    A,@DPTR
   \   00046E   65..         XRL     A,?V0 + 5
   \   000470   701D         JNZ     ??MAC_CbackEvent_20
   \   000472   E5..         MOV     A,?V0 + 6
   \   000474   7019         JNZ     ??MAC_CbackEvent_20
   \   000476   85..82       MOV     DPL,?XSP + 0
   \   000479   85..83       MOV     DPH,?XSP + 1
   \   00047C   E0           MOVX    A,@DPTR
   \   00047D   F8           MOV     R0,A
   \   00047E   A3           INC     DPTR
   \   00047F   E0           MOVX    A,@DPTR
   \   000480   C8           XCH     A,R0
   \   000481   241A         ADD     A,#0x1a
   \   000483   F582         MOV     DPL,A
   \   000485   E8           MOV     A,R0
   \   000486   3400         ADDC    A,#0x0
   \   000488   F583         MOV     DPH,A
   \   00048A   E0           MOVX    A,@DPTR
   \   00048B   6402         XRL     A,#0x2
   \   00048D   6010         JZ      ??MAC_CbackEvent_21
    255                {
    256                  // Drop the message
    257                  mac_msg_deallocate( (uint8 **)&pData );
   \                     ??MAC_CbackEvent_20:
   \   00048F                ; Setup parameters for call to function mac_msg_deallocate
   \   00048F   85..82       MOV     DPL,?XSP + 0
   \   000492   85..83       MOV     DPH,?XSP + 1
   \   000495   AA82         MOV     R2,DPL
   \   000497   AB83         MOV     R3,DPH
   \   000499   12....       LCALL   ??mac_msg_deallocate?relay
    258                  return;
   \   00049C   02....       LJMP    ??MAC_CbackEvent_0 & 0xFFFF
    259                }
    260                else
    261                {
    262                  macDataInd_t *pInd = &msgPtr->dataInd.mac;
   \                     ??MAC_CbackEvent_21:
   \   00049F   EE           MOV     A,R6
   \   0004A0   2412         ADD     A,#0x12
   \   0004A2   F5..         MOV     ?V0 + 0,A
   \   0004A4   EF           MOV     A,R7
   \   0004A5   3400         ADDC    A,#0x0
   \   0004A7   F5..         MOV     ?V0 + 1,A
    263                  // See if LQI needs adjustment due to frame correlation
    264                  ZMacLqiAdjust( pInd->correlation, &pInd->mpduLinkQuality );
   \   0004A9                ; Setup parameters for call to function ZMacLqiAdjust
   \   0004A9   E5..         MOV     A,?V0 + 0
   \   0004AB   241C         ADD     A,#0x1c
   \   0004AD   FA           MOV     R2,A
   \   0004AE   E5..         MOV     A,?V0 + 1
   \   0004B0   3400         ADDC    A,#0x0
   \   0004B2   FB           MOV     R3,A
   \   0004B3   E5..         MOV     A,?V0 + 0
   \   0004B5   241D         ADD     A,#0x1d
   \   0004B7   F582         MOV     DPL,A
   \   0004B9   E5..         MOV     A,?V0 + 1
   \   0004BB   3400         ADDC    A,#0x0
   \   0004BD   F583         MOV     DPH,A
   \   0004BF   E0           MOVX    A,@DPTR
   \   0004C0   F9           MOV     R1,A
   \   0004C1   12....       LCALL   ??ZMacLqiAdjust?relay
    265          
    266                  // Look for broadcast message that has a radius of greater 1
    267                  if ( (pData->dataInd.mac.dstAddr.addr.shortAddr == 0xFFFF)
    268                         && (pData->dataInd.msdu.p[6] > 1) )
   \   0004C4   85..82       MOV     DPL,?XSP + 0
   \   0004C7   85..83       MOV     DPH,?XSP + 1
   \   0004CA   E0           MOVX    A,@DPTR
   \   0004CB   F8           MOV     R0,A
   \   0004CC   A3           INC     DPTR
   \   0004CD   E0           MOVX    A,@DPTR
   \   0004CE   C8           XCH     A,R0
   \   0004CF   241B         ADD     A,#0x1b
   \   0004D1   F582         MOV     DPL,A
   \   0004D3   E8           MOV     A,R0
   \   0004D4   3400         ADDC    A,#0x0
   \   0004D6   F583         MOV     DPH,A
   \   0004D8   E0           MOVX    A,@DPTR
   \   0004D9   64FF         XRL     A,#0xff
   \   0004DB   7004         JNZ     ??MAC_CbackEvent_22
   \   0004DD   A3           INC     DPTR
   \   0004DE   E0           MOVX    A,@DPTR
   \   0004DF   64FF         XRL     A,#0xff
   \                     ??MAC_CbackEvent_22:
   \   0004E1   6003         JZ      $+5
   \   0004E3   02....       LJMP    ??MAC_CbackEvent_23 & 0xFFFF
   \   0004E6   85..82       MOV     DPL,?XSP + 0
   \   0004E9   85..83       MOV     DPH,?XSP + 1
   \   0004EC   E0           MOVX    A,@DPTR
   \   0004ED   F8           MOV     R0,A
   \   0004EE   A3           INC     DPTR
   \   0004EF   E0           MOVX    A,@DPTR
   \   0004F0   F583         MOV     DPH,A
   \   0004F2   8882         MOV     DPL,R0
   \   0004F4   A3           INC     DPTR
   \   0004F5   A3           INC     DPTR
   \   0004F6   E0           MOVX    A,@DPTR
   \   0004F7   F8           MOV     R0,A
   \   0004F8   A3           INC     DPTR
   \   0004F9   E0           MOVX    A,@DPTR
   \   0004FA   C8           XCH     A,R0
   \   0004FB   2406         ADD     A,#0x6
   \   0004FD   F582         MOV     DPL,A
   \   0004FF   E8           MOV     A,R0
   \   000500   3400         ADDC    A,#0x0
   \   000502   F583         MOV     DPH,A
   \   000504   E0           MOVX    A,@DPTR
   \   000505   C3           CLR     C
   \   000506   9402         SUBB    A,#0x2
   \   000508   406F         JC      ??MAC_CbackEvent_23
    269                  {
    270                    // Send the messsage to a special broadcast queue
    271                    if ( nwk_broadcastSend( (uint8 *)msgPtr ) != SUCCESS )
   \   00050A                ; Setup parameters for call to function nwk_broadcastSend
   \   00050A   EE           MOV     A,R6
   \   00050B   FA           MOV     R2,A
   \   00050C   EF           MOV     A,R7
   \   00050D   FB           MOV     R3,A
   \   00050E   12....       LCALL   ??nwk_broadcastSend?relay
   \   000511   E9           MOV     A,R1
   \   000512   600D         JZ      ??MAC_CbackEvent_24
    272                    {
    273                      // Drop the message, too many broadcast messages to process
    274                      mac_msg_deallocate( (uint8 **)&pData );
   \   000514                ; Setup parameters for call to function mac_msg_deallocate
   \   000514   85..82       MOV     DPL,?XSP + 0
   \   000517   85..83       MOV     DPH,?XSP + 1
   \   00051A   AA82         MOV     R2,DPL
   \   00051C   AB83         MOV     R3,DPH
   \   00051E   12....       LCALL   ??mac_msg_deallocate?relay
    275                    }
    276                    return;
   \                     ??MAC_CbackEvent_24:
   \   000521   02....       LJMP    ??MAC_CbackEvent_0 & 0xFFFF
    277                  }
    278                }
    279              }
    280              else if ((event == MAC_MCPS_DATA_CNF) && (pData->hdr.status != MAC_NO_RESOURCES))
   \                     ??MAC_CbackEvent_19:
   \   000524   740C         MOV     A,#0xc
   \   000526   65..         XRL     A,?V0 + 2
   \   000528   704F         JNZ     ??MAC_CbackEvent_23
   \   00052A   85..82       MOV     DPL,?XSP + 0
   \   00052D   85..83       MOV     DPH,?XSP + 1
   \   000530   E0           MOVX    A,@DPTR
   \   000531   F8           MOV     R0,A
   \   000532   A3           INC     DPTR
   \   000533   E0           MOVX    A,@DPTR
   \   000534   F583         MOV     DPH,A
   \   000536   8882         MOV     DPL,R0
   \   000538   A3           INC     DPTR
   \   000539   E0           MOVX    A,@DPTR
   \   00053A   641A         XRL     A,#0x1a
   \   00053C   603B         JZ      ??MAC_CbackEvent_23
    281              {
    282                macMcpsDataCnf_t *pCnf = &msgPtr->dataCnf;
   \   00053E   8E..         MOV     ?V0 + 0,R6
   \   000540   8F..         MOV     ?V0 + 1,R7
    283                
    284                if (pCnf->pDataReq->internal.txOptions & MAC_TXOPTION_ACK)
   \   000542   85..82       MOV     DPL,?V0 + 0
   \   000545   85..83       MOV     DPH,?V0 + 1
   \   000548   A3           INC     DPTR
   \   000549   A3           INC     DPTR
   \   00054A   A3           INC     DPTR
   \   00054B   E0           MOVX    A,@DPTR
   \   00054C   F8           MOV     R0,A
   \   00054D   A3           INC     DPTR
   \   00054E   E0           MOVX    A,@DPTR
   \   00054F   C8           XCH     A,R0
   \   000550   240E         ADD     A,#0xe
   \   000552   F582         MOV     DPL,A
   \   000554   E8           MOV     A,R0
   \   000555   3400         ADDC    A,#0x0
   \   000557   F583         MOV     DPH,A
   \   000559   E0           MOVX    A,@DPTR
   \   00055A   A2E0         MOV     C,0xE0 /* A   */.0
   \   00055C   501B         JNC     ??MAC_CbackEvent_23
    285                {
    286                  // See if LQI needs adjustment due to frame correlation
    287                  ZMacLqiAdjust( pCnf->correlation, &pCnf->mpduLinkQuality );
   \   00055E                ; Setup parameters for call to function ZMacLqiAdjust
   \   00055E   E5..         MOV     A,?V0 + 0
   \   000560   240C         ADD     A,#0xc
   \   000562   FA           MOV     R2,A
   \   000563   E5..         MOV     A,?V0 + 1
   \   000565   3400         ADDC    A,#0x0
   \   000567   FB           MOV     R3,A
   \   000568   E5..         MOV     A,?V0 + 0
   \   00056A   240D         ADD     A,#0xd
   \   00056C   F582         MOV     DPL,A
   \   00056E   E5..         MOV     A,?V0 + 1
   \   000570   3400         ADDC    A,#0x0
   \   000572   F583         MOV     DPH,A
   \   000574   E0           MOVX    A,@DPTR
   \   000575   F9           MOV     R1,A
   \   000576   12....       LCALL   ??ZMacLqiAdjust?relay
    288                }
    289              }
    290          
    291              // Application hasn't already processed this message. Send it to NWK task.
    292              osal_msg_send( NWK_TaskID, (uint8 *)msgPtr );
   \                     ??MAC_CbackEvent_23:
   \   000579                ; Setup parameters for call to function osal_msg_send
   \   000579   EE           MOV     A,R6
   \   00057A   FA           MOV     R2,A
   \   00057B   EF           MOV     A,R7
   \   00057C   FB           MOV     R3,A
   \   00057D   90....       MOV     DPTR,#NWK_TaskID
   \   000580   E0           MOVX    A,@DPTR
   \   000581   F9           MOV     R1,A
   \   000582   12....       LCALL   ??osal_msg_send?relay
   \   000585   E9           MOV     A,R1
    293            }
    294          
    295            if ((event == MAC_MCPS_DATA_CNF) && (pData->dataCnf.pDataReq != NULL))
   \                     ??MAC_CbackEvent_18:
   \   000586   740C         MOV     A,#0xc
   \   000588   65..         XRL     A,?V0 + 2
   \   00058A   702C         JNZ     ??MAC_CbackEvent_0
   \   00058C   85..82       MOV     DPL,?XSP + 0
   \   00058F   85..83       MOV     DPH,?XSP + 1
   \   000592   E0           MOVX    A,@DPTR
   \   000593   F8           MOV     R0,A
   \   000594   A3           INC     DPTR
   \   000595   E0           MOVX    A,@DPTR
   \   000596   F583         MOV     DPH,A
   \   000598   8882         MOV     DPL,R0
   \   00059A   A3           INC     DPTR
   \   00059B   A3           INC     DPTR
   \   00059C   A3           INC     DPTR
   \   00059D   E0           MOVX    A,@DPTR
   \   00059E   F8           MOV     R0,A
   \   00059F   A3           INC     DPTR
   \   0005A0   E0           MOVX    A,@DPTR
   \   0005A1   F9           MOV     R1,A
   \   0005A2   E8           MOV     A,R0
   \   0005A3   49           ORL     A,R1
   \   0005A4   6012         JZ      ??MAC_CbackEvent_0
    296            {
    297              // If the application needs 'pDataReq' then we cannot free it here.
    298              // The application must free it after using it. Note that 'pDataReq'
    299              // is of macMcpsDataReq_t (and not ZMacDataReq_t) type.
    300          
    301              mac_msg_deallocate( (uint8**)&(pData->dataCnf.pDataReq) );
   \   0005A6                ; Setup parameters for call to function mac_msg_deallocate
   \   0005A6   85..82       MOV     DPL,?XSP + 0
   \   0005A9   85..83       MOV     DPH,?XSP + 1
   \   0005AC   E0           MOVX    A,@DPTR
   \   0005AD   2403         ADD     A,#0x3
   \   0005AF   FA           MOV     R2,A
   \   0005B0   A3           INC     DPTR
   \   0005B1   E0           MOVX    A,@DPTR
   \   0005B2   3400         ADDC    A,#0x0
   \   0005B4   FB           MOV     R3,A
   \   0005B5   12....       LCALL   ??mac_msg_deallocate?relay
    302            }
    303          #endif
    304          }
   \                     ??MAC_CbackEvent_0:
   \   0005B8   7404         MOV     A,#0x4
   \   0005BA   12....       LCALL   ?DEALLOC_XSTACK8
   \   0005BD   7F0A         MOV     R7,#0xa
   \   0005BF   02....       LJMP    ?BANKED_LEAVE_XDATA
   \   0005C2                REQUIRE _A_IEN0
    305          #else  // ifdef MT_MAC_CB_FUNC
    306          {
    307            /* Check if MT has subscribed for this callback If so, pass it as an event to MonitorTest */
    308            switch (pData->hdr.event)
    309            {
    310              case MAC_MLME_ASSOCIATE_IND:
    311                if ( _macCallbackSub & CB_ID_NWK_ASSOCIATE_IND )
    312                  nwk_MTCallbackSubNwkAssociateInd ( (ZMacAssociateInd_t *)pData );
    313                break;
    314          
    315              case MAC_MLME_ASSOCIATE_CNF:
    316                if ( _macCallbackSub & CB_ID_NWK_ASSOCIATE_CNF )
    317                  nwk_MTCallbackSubNwkAssociateCnf ( (ZMacAssociateCnf_t *)pData );
    318                break;
    319          
    320              case MAC_MLME_DISASSOCIATE_IND:
    321                if ( _macCallbackSub & CB_ID_NWK_DISASSOCIATE_IND )
    322                  nwk_MTCallbackSubNwkDisassociateInd ( (ZMacDisassociateInd_t *)pData );
    323                break;
    324          
    325              case MAC_MLME_DISASSOCIATE_CNF:
    326                if ( _macCallbackSub & CB_ID_NWK_DISASSOCIATE_CNF )
    327                  nwk_MTCallbackSubNwkDisassociateCnf ( (ZMacDisassociateCnf_t *)pData );
    328                break;
    329          
    330              case MAC_MLME_BEACON_NOTIFY_IND:
    331                if ( _macCallbackSub & CB_ID_NWK_BEACON_NOTIFY_IND )
    332                  nwk_MTCallbackSubNwkBeaconNotifyInd( (ZMacBeaconNotifyInd_t *)pData );
    333                break;
    334          
    335              case MAC_MLME_ORPHAN_IND:
    336                if ( _macCallbackSub & CB_ID_NWK_ORPHAN_IND )
    337                  nwk_MTCallbackSubNwkOrphanInd( (ZMacOrphanInd_t *) pData );
    338                break;
    339          
    340              case MAC_MLME_SCAN_CNF:
    341                if ( _macCallbackSub & CB_ID_NWK_SCAN_CNF )
    342                {
    343                  pData->scanCnf.result.pEnergyDetect = ZMac_ScanBuf;
    344                  nwk_MTCallbackSubNwkScanCnf ( (ZMacScanCnf_t *) pData );
    345                }
    346          
    347                if (ZMac_ScanBuf != NULL)
    348                {
    349                  void *pTmp = ZMac_ScanBuf;
    350                  ZMac_ScanBuf = NULL;
    351                  osal_mem_free(pTmp);
    352                }
    353                break;
    354          
    355              case MAC_MLME_START_CNF:
    356                if ( _macCallbackSub & CB_ID_NWK_START_CNF )
    357                  nwk_MTCallbackSubNwkStartCnf ( pData->hdr.status );
    358                break;
    359          
    360              case MAC_MLME_SYNC_LOSS_IND:
    361                if ( _macCallbackSub & CB_ID_NWK_SYNC_LOSS_IND )
    362                 nwk_MTCallbackSubNwkSyncLossInd( (ZMacSyncLossInd_t *) pData );
    363                break;
    364          
    365              case MAC_MLME_POLL_CNF:
    366                if ( _macCallbackSub & CB_ID_NWK_POLL_CNF )
    367                   nwk_MTCallbackSubNwkPollCnf( pData->hdr.status );
    368                break;
    369          
    370              case MAC_MLME_COMM_STATUS_IND:
    371                if ( _macCallbackSub & CB_ID_NWK_COMM_STATUS_IND )
    372                  nwk_MTCallbackSubCommStatusInd ( (ZMacCommStatusInd_t *) pData );
    373                break;
    374          
    375              case MAC_MCPS_DATA_CNF:
    376                if (pData->dataCnf.pDataReq != NULL)
    377                  mac_msg_deallocate((uint8**)&pData->dataCnf.pDataReq);
    378          
    379                if ( _macCallbackSub & CB_ID_NWK_DATA_CNF )
    380                  nwk_MTCallbackSubNwkDataCnf( (ZMacDataCnf_t *) pData );
    381                break;
    382          
    383              case MAC_MCPS_DATA_IND:
    384                {
    385                  /*
    386                     Data Ind is unconventional: to save an alloc/copy, reuse the MAC
    387                     buffer and re-organize the contents into ZMAC format.
    388                  */
    389                  ZMacDataInd_t *pDataInd = (ZMacDataInd_t *) pData;
    390                  uint8 event, status, len, *msdu;
    391          
    392                  /* Store parameters */
    393                  event = pData->hdr.event;
    394                  status = pData->hdr.status;
    395                  len = pData->dataInd.msdu.len;
    396                  msdu = pData->dataInd.msdu.p;
    397          
    398                  /* Copy security fields */
    399                  osal_memcpy(&pDataInd->Sec, &pData->dataInd.sec, sizeof(ZMacSec_t));
    400                  
    401                  /* Copy mac fields one by one since the two buffers overlap. */
    402                  osal_memcpy(&pDataInd->SrcAddr, &pData->dataInd.mac.srcAddr, sizeof(zAddrType_t));
    403                  osal_memcpy(&pDataInd->DstAddr, &pData->dataInd.mac.dstAddr, sizeof(zAddrType_t));
    404                  pDataInd->Timestamp = pData->dataInd.mac.timestamp;
    405                  pDataInd->Timestamp2 = pData->dataInd.mac.timestamp2;
    406                  pDataInd->SrcPANId = pData->dataInd.mac.srcPanId;
    407                  pDataInd->DstPANId = pData->dataInd.mac.dstPanId;
    408                  pDataInd->mpduLinkQuality = pData->dataInd.mac.mpduLinkQuality;
    409                  pDataInd->Correlation = pData->dataInd.mac.correlation;
    410                  pDataInd->Rssi = pData->dataInd.mac.rssi;
    411                  pDataInd->Dsn = pData->dataInd.mac.dsn;
    412          
    413                  /* Restore parameters */
    414                  pDataInd->hdr.Status = status;
    415                  pDataInd->hdr.Event = event;
    416                  pDataInd->msduLength = len;
    417          
    418                  if (len)
    419                    pDataInd->msdu = msdu;
    420                  else
    421                    pDataInd->msdu = NULL;
    422          
    423                  if ( _macCallbackSub & CB_ID_NWK_DATA_IND )
    424                    nwk_MTCallbackSubNwkDataInd ( pDataInd );
    425                }
    426          
    427                /* free buffer */
    428                mac_msg_deallocate( (uint8 **)&pData );
    429                break;
    430          
    431              case MAC_MCPS_PURGE_CNF:
    432                if ( _macCallbackSub & CB_ID_NWK_PURGE_CNF )
    433                  nwk_MTCallbackSubNwkPurgeCnf( (ZMacPurgeCnf_t *) pData);
    434                break;
    435          
    436              default:
    437                break;
    438            }
    439          }
    440          #endif
    441          
    442          /********************************************************************************************************
    443           * @fn      MAC_CbackCheckPending
    444           *
    445           * @brief   Return number of pending indirect msg
    446           *
    447           * @param   None
    448           *
    449           * @return  Number of indirect msg holding
    450           ********************************************************************************************************/

   \                                 In  segment BANKED_CODE, align 1, keep-with-next
    451          uint8 MAC_CbackCheckPending(void)
   \                     MAC_CbackCheckPending:
    452          {
   \   000000                ; Saved register size: 0
   \   000000                ; Auto size: 0
    453          #if !defined (NONWK)
    454            if ( ZSTACK_ROUTER_BUILD )
    455            {
    456              return (nwkDB_ReturnIndirectHoldingCnt());
    457            }
    458            else
    459            {
    460              return (0);
   \   000000   7900         MOV     R1,#0x0
   \   000002   02....       LJMP    ?BRET
    461            }
    462          #else
    463            return (0);
    464          #endif
    465          }
    466          
    467          /********************************************************************************************************
    468           * @fn      ZMacLqiAdjustMode
    469           *
    470           * @brief   Sets/return LQI adjust mode
    471           *
    472           * @param   mode - LQI_ADJ_GET = return current mode only
    473           *                 LQI_ADJ_OFF = disable LQI adjusts
    474           *                 LQI_ADJ_MODEx = set to LQI adjust MODEx
    475           *
    476           * @return  current LQI adjust mode
    477           ********************************************************************************************************/

   \                                 In  segment BANKED_CODE, align 1, keep-with-next
    478          ZMacLqiAdjust_t ZMacLqiAdjustMode( ZMacLqiAdjust_t mode )
   \                     ZMacLqiAdjustMode:
    479          {
   \   000000   C082         PUSH    DPL
   \   000002   C083         PUSH    DPH
   \   000004                ; Saved register size: 2
   \   000004                ; Auto size: 0
   \   000004   E9           MOV     A,R1
   \   000005   F8           MOV     R0,A
    480            if ( mode != LQI_ADJ_GET )
   \   000006   74FF         MOV     A,#-0x1
   \   000008   68           XRL     A,R0
   \   000009   6005         JZ      ??ZMacLqiAdjustMode_0
    481            {
    482              lqiAdjMode = mode;
   \   00000B   E8           MOV     A,R0
   \   00000C   90....       MOV     DPTR,#lqiAdjMode
   \   00000F   F0           MOVX    @DPTR,A
    483            }
    484            return ( lqiAdjMode );
   \                     ??ZMacLqiAdjustMode_0:
   \   000010   90....       MOV     DPTR,#lqiAdjMode
   \   000013   E0           MOVX    A,@DPTR
   \   000014   F9           MOV     R1,A
   \   000015   D083         POP     DPH
   \   000017   D082         POP     DPL
   \   000019   02....       LJMP    ?BRET
    485          }
    486          
    487          #if !defined NONWK
    488          /********************************************************************************************************
    489           * @fn      ZMacLqiAdjust
    490           *
    491           * @brief   Adjust LQI according to correlation value
    492           *
    493           * @notes - the IEEE 802.15.4 specification provides some general statements on
    494           *          the subject of LQI. Section 6.7.8: "The minimum and maximum LQI values
    495           *          (0x00 and 0xFF) should be associated with the lowest and highest IEEE
    496           *          802.15.4 signals detectable by the receiver, and LQ values should be
    497           *          uniformly distributed between these two limits." Section E.2.3: "The
    498           *          LQI (see 6.7.8) measures the received energy and/or SNR for each
    499           *          received packet. When energy level and SNR information are combined,
    500           *          they can indicate whether a corrupt packet resulted from low signal
    501           *          strength or from high signal strength plus interference."
    502           *        - LQI Adjustment Mode1 provided below is a simple algorithm to use the
    503           *          packet correlation value (related to SNR) to scale incoming LQI value
    504           *          (related to signal strength) to 'derate' noisy packets.
    505           *        - LQI Adjustment Mode2 provided below is a location for a developer to
    506           *          implement their own proprietary LQI adjustment algorithm.
    507           *
    508           * @param   corr - packet correlation value
    509           * @param   lqi  - ptr to link quality (scaled rssi)
    510           *
    511           * @return  *lqi - adjusted link quality
    512           ********************************************************************************************************/

   \                                 In  segment BANKED_CODE, align 1, keep-with-next
    513          static void ZMacLqiAdjust( uint8 corr, uint8 *lqi )
   \                     ZMacLqiAdjust:
    514          {
   \   000000   74F6         MOV     A,#-0xa
   \   000002   12....       LCALL   ?BANKED_ENTER_XDATA
   \   000005                ; Saved register size: 10
   \   000005                ; Auto size: 0
   \   000005   E9           MOV     A,R1
   \   000006   FE           MOV     R6,A
   \   000007   EA           MOV     A,R2
   \   000008   FC           MOV     R4,A
   \   000009   EB           MOV     A,R3
   \   00000A   FD           MOV     R5,A
    515            if ( lqiAdjMode != LQI_ADJ_OFF )
   \   00000B   90....       MOV     DPTR,#lqiAdjMode
   \   00000E   E0           MOVX    A,@DPTR
   \   00000F   606A         JZ      ??ZMacLqiAdjust_0
    516            {
    517              uint16 adjLqi = *lqi;
   \   000011   8C82         MOV     DPL,R4
   \   000013   8D83         MOV     DPH,R5
   \   000015   E0           MOVX    A,@DPTR
   \   000016   F8           MOV     R0,A
   \   000017   7900         MOV     R1,#0x0
    518          
    519              // Keep correlation within theoretical limits
    520              if ( corr < LQI_CORR_MIN )
   \   000019   EE           MOV     A,R6
   \   00001A   C3           CLR     C
   \   00001B   9432         SUBB    A,#0x32
   \   00001D   5004         JNC     ??ZMacLqiAdjust_1
    521              {
    522                 corr = LQI_CORR_MIN;
   \   00001F   7E32         MOV     R6,#0x32
   \   000021   8008         SJMP    ??ZMacLqiAdjust_2
    523              }
    524              else if ( corr > LQI_CORR_MAX )
   \                     ??ZMacLqiAdjust_1:
   \   000023   EE           MOV     A,R6
   \   000024   C3           CLR     C
   \   000025   946F         SUBB    A,#0x6f
   \   000027   4002         JC      ??ZMacLqiAdjust_2
    525              {
    526                 corr = LQI_CORR_MAX;
   \   000029   7E6E         MOV     R6,#0x6e
    527              }
    528          
    529              if ( lqiAdjMode == LQI_ADJ_MODE1 )
   \                     ??ZMacLqiAdjust_2:
   \   00002B   90....       MOV     DPTR,#lqiAdjMode
   \   00002E   E0           MOVX    A,@DPTR
   \   00002F   6401         XRL     A,#0x1
   \   000031   7035         JNZ     ??ZMacLqiAdjust_3
    530              {
    531                /* MODE1 - linear scaling of incoming LQI with a "correlation percentage"
    532                           which is computed from the incoming correlation value between
    533                           theorectical minimum/maximum values. This is a very simple way
    534                           of 'derating' the incoming LQI as correlation value drops. */
    535                adjLqi = (adjLqi * (corr - LQI_CORR_MIN)) / (LQI_CORR_MAX - LQI_CORR_MIN);
   \   000033   8E..         MOV     ?V0 + 0,R6
   \   000035   75..00       MOV     ?V0 + 1,#0x0
   \   000038   E5..         MOV     A,?V0 + 0
   \   00003A   24CE         ADD     A,#-0x32
   \   00003C   F5..         MOV     ?V0 + 0,A
   \   00003E   E5..         MOV     A,?V0 + 1
   \   000040   34FF         ADDC    A,#-0x1
   \   000042   F5..         MOV     ?V0 + 1,A
   \   000044   E8           MOV     A,R0
   \   000045   85..F0       MOV     B,?V0 + 0
   \   000048   A4           MUL     AB
   \   000049   C8           XCH     A,R0
   \   00004A   AAF0         MOV     R2,B
   \   00004C   85..F0       MOV     B,?V0 + 1
   \   00004F   A4           MUL     AB
   \   000050   2A           ADD     A,R2
   \   000051   FA           MOV     R2,A
   \   000052   85..F0       MOV     B,?V0 + 0
   \   000055   E9           MOV     A,R1
   \   000056   A4           MUL     AB
   \   000057   2A           ADD     A,R2
   \   000058   F9           MOV     R1,A
   \   000059   7A3C         MOV     R2,#0x3c
   \   00005B   7B00         MOV     R3,#0x0
   \   00005D   12....       LCALL   ?US_DIV_MOD
   \   000060   88..         MOV     ?V0 + 0,R0
   \   000062   89..         MOV     ?V0 + 1,R1
   \   000064   A8..         MOV     R0,?V0 + 0
   \   000066   A9..         MOV     R1,?V0 + 1
    536              }
    537              else if ( lqiAdjMode == LQI_ADJ_MODE2 )
    538              {
    539                /* MODE2 - location for developer to implement a proprietary algorithm */
    540              }
    541          
    542              // Replace incoming LQI with scaled value
    543              *lqi = (adjLqi > 255) ? 255 : (uint8)adjLqi;
   \                     ??ZMacLqiAdjust_3:
   \   000068   C3           CLR     C
   \   000069   E8           MOV     A,R0
   \   00006A   9400         SUBB    A,#0x0
   \   00006C   E9           MOV     A,R1
   \   00006D   9401         SUBB    A,#0x1
   \   00006F   4004         JC      ??ZMacLqiAdjust_4
   \   000071   74FF         MOV     A,#-0x1
   \   000073   8001         SJMP    ??ZMacLqiAdjust_5
   \                     ??ZMacLqiAdjust_4:
   \   000075   E8           MOV     A,R0
   \                     ??ZMacLqiAdjust_5:
   \   000076   8C82         MOV     DPL,R4
   \   000078   8D83         MOV     DPH,R5
   \   00007A   F0           MOVX    @DPTR,A
    544            }
    545          }
   \                     ??ZMacLqiAdjust_0:
   \   00007B   7F02         MOV     R7,#0x2
   \   00007D   02....       LJMP    ?BANKED_LEAVE_XDATA

   \                                 In  segment BANK_RELAYS, align 1
   \                     ??MAC_CbackEvent?relay:
   \   000000   12....       LCALL   ?BDISPATCH
   \   000003   ......       DC24    MAC_CbackEvent

   \                                 In  segment BANK_RELAYS, align 1
   \                     ??MAC_CbackCheckPending?relay:
   \   000000   12....       LCALL   ?BDISPATCH
   \   000003   ......       DC24    MAC_CbackCheckPending

   \                                 In  segment BANK_RELAYS, align 1
   \                     ??ZMacLqiAdjustMode?relay:
   \   000000   12....       LCALL   ?BDISPATCH
   \   000003   ......       DC24    ZMacLqiAdjustMode

   \                                 In  segment BANK_RELAYS, align 1
   \                     ??ZMacLqiAdjust?relay:
   \   000000   12....       LCALL   ?BDISPATCH
   \   000003   ......       DC24    ZMacLqiAdjust
    546          #endif

   Maximum stack usage in bytes:

   ISTACK PSTACK XSTACK Function
   ------ ------ ------ --------
       0      0      0  MAC_CbackCheckPending
       0      0     25  MAC_CbackEvent
                          0 0 22 -> MAC_MlmeGetReq
                          0 0 22 -> ZMacLqiAdjust
                          0 0 22 -> mac_msg_deallocate
                          0 0 22 -> nwk_broadcastSend
                          0 0 22 -> osal_mem_free
                          0 0 25 -> osal_memcpy
                          0 0 22 -> osal_msg_allocate
                          0 0 22 -> osal_msg_send
       1      0     32  ZMacLqiAdjust
       2      0      0  ZMacLqiAdjustMode


   Segment part sizes:

   Bytes  Function/Label
   -----  --------------
       6  ??MAC_CbackCheckPending?relay
       6  ??MAC_CbackEvent?relay
       6  ??ZMacLqiAdjust?relay
       6  ??ZMacLqiAdjustMode?relay
       5  MAC_CbackCheckPending
    1474  MAC_CbackEvent
     128  ZMacLqiAdjust
      28  ZMacLqiAdjustMode
       1  _A_IEN0
       1  lqiAdjMode
       2  pZMac_AppCallback
      17  zmacCBSizeTable

 
 1 635 bytes in segment BANKED_CODE
    24 bytes in segment BANK_RELAYS
    17 bytes in segment CODE_C
     1 byte  in segment SFR_AN
     3 bytes in segment XDATA_Z
 
 1 676 bytes of CODE  memory
     0 bytes of DATA  memory (+ 1 byte shared)
     3 bytes of XDATA memory

Errors: none
Warnings: none
